target datalayout = "e-m:e-p270:32:32-p271:32:32-p272:64:64-i64:64-i128:128-f80:128-n8:16:32:64-S128"
target triple = "x86_64-pc-linux-gnu"

%struct.opj_bio = type { ptr, ptr, ptr, i32, i32 }

; Function Attrs: nounwind uwtable
define internal i32 @opj_bio_byteout(ptr noundef %0) #0 {
  %2 = alloca i32, align 4
  %3 = alloca ptr, align 8
  store ptr %0, ptr %3, align 8, !tbaa !3
  %4 = load ptr, ptr %3, align 8, !tbaa !3
  %5 = getelementptr inbounds nuw %struct.opj_bio, ptr %4, i32 0, i32 3
  %6 = load i32, ptr %5, align 8, !tbaa !16
  %7 = shl i32 %6, 8
  %8 = and i32 %7, 65535
  %9 = load ptr, ptr %3, align 8, !tbaa !3
  %10 = getelementptr inbounds nuw %struct.opj_bio, ptr %9, i32 0, i32 3
  store i32 %8, ptr %10, align 8, !tbaa !16
  %11 = load ptr, ptr %3, align 8, !tbaa !3
  %12 = getelementptr inbounds nuw %struct.opj_bio, ptr %11, i32 0, i32 3
  %13 = load i32, ptr %12, align 8, !tbaa !16
  %14 = icmp eq i32 %13, 65280
  %15 = select i1 %14, i32 7, i32 8
  %16 = load ptr, ptr %3, align 8, !tbaa !3
  %17 = getelementptr inbounds nuw %struct.opj_bio, ptr %16, i32 0, i32 4
  store i32 %15, ptr %17, align 4, !tbaa !17
  %18 = load ptr, ptr %3, align 8, !tbaa !3
  %19 = getelementptr inbounds nuw %struct.opj_bio, ptr %18, i32 0, i32 2
  %20 = load ptr, ptr %19, align 8, !tbaa !8
  %21 = ptrtoint ptr %20 to i64
  %22 = load ptr, ptr %3, align 8, !tbaa !3
  %23 = getelementptr inbounds nuw %struct.opj_bio, ptr %22, i32 0, i32 1
  %24 = load ptr, ptr %23, align 8, !tbaa !15
  %25 = ptrtoint ptr %24 to i64
  %26 = icmp uge i64 %21, %25
  br i1 %26, label %27, label %28

27:                                               ; preds = %1
  store i32 0, ptr %2, align 4
  br label %38

28:                                               ; preds = %1
  %29 = load ptr, ptr %3, align 8, !tbaa !3
  %30 = getelementptr inbounds nuw %struct.opj_bio, ptr %29, i32 0, i32 3
  %31 = load i32, ptr %30, align 8, !tbaa !16
  %32 = lshr i32 %31, 8
  %33 = trunc i32 %32 to i8
  %34 = load ptr, ptr %3, align 8, !tbaa !3
  %35 = getelementptr inbounds nuw %struct.opj_bio, ptr %34, i32 0, i32 2
  %36 = load ptr, ptr %35, align 8, !tbaa !8
  %37 = getelementptr inbounds nuw i8, ptr %36, i32 1
  store ptr %37, ptr %35, align 8, !tbaa !8
  store i8 %33, ptr %36, align 1, !tbaa !18
  store i32 1, ptr %2, align 4
  br label %38

38:                                               ; preds = %28, %27
  %39 = load i32, ptr %2, align 4
  ret i32 %39
}

; Function Attrs: nounwind uwtable
define hidden void @opj_bio_putbit(ptr noundef %0, i32 noundef %1) #0 {
  %3 = alloca ptr, align 8
  %4 = alloca i32, align 4
  store ptr %0, ptr %3, align 8, !tbaa !3
  store i32 %1, ptr %4, align 4, !tbaa !14
  %5 = load ptr, ptr %3, align 8, !tbaa !3
  %6 = getelementptr inbounds nuw %struct.opj_bio, ptr %5, i32 0, i32 4
  %7 = load i32, ptr %6, align 4, !tbaa !17
  %8 = icmp eq i32 %7, 0
  br i1 %8, label %9, label %12

9:                                                ; preds = %2
  %10 = load ptr, ptr %3, align 8, !tbaa !3
  %11 = call i32 @opj_bio_byteout(ptr noundef %10)
  br label %12

12:                                               ; preds = %9, %2
  %13 = load ptr, ptr %3, align 8, !tbaa !3
  %14 = getelementptr inbounds nuw %struct.opj_bio, ptr %13, i32 0, i32 4
  %15 = load i32, ptr %14, align 4, !tbaa !17
  %16 = add i32 %15, -1
  store i32 %16, ptr %14, align 4, !tbaa !17
  %17 = load i32, ptr %4, align 4, !tbaa !14
  %18 = load ptr, ptr %3, align 8, !tbaa !3
  %19 = getelementptr inbounds nuw %struct.opj_bio, ptr %18, i32 0, i32 4
  %20 = load i32, ptr %19, align 4, !tbaa !17
  %21 = shl i32 %17, %20
  %22 = load ptr, ptr %3, align 8, !tbaa !3
  %23 = getelementptr inbounds nuw %struct.opj_bio, ptr %22, i32 0, i32 3
  %24 = load i32, ptr %23, align 8, !tbaa !16
  %25 = or i32 %24, %21
  store i32 %25, ptr %23, align 8, !tbaa !16
  ret void
}