; Function Attrs: mustprogress nofree norecurse nosync nounwind willreturn memory(write, argmem: readwrite, inaccessiblemem: none) uwtable
define hidden void @opj_bio_putbit(ptr noundef captures(none) %0, i32 noundef %1) local_unnamed_addr #4 {
  %3 = getelementptr inbounds nuw i8, ptr %0, i64 28
  %4 = load i32, ptr %3, align 4, !tbaa !13
  %5 = icmp eq i32 %4, 0
  br i1 %5, label %6, label %opj_bio_byteout.exit

6:                                                ; preds = %2
  %7 = getelementptr inbounds nuw i8, ptr %0, i64 24
  %8 = load i32, ptr %7, align 8, !tbaa !12
  %9 = shl i32 %8, 8
  %10 = and i32 %9, 65280
  store i32 %10, ptr %7, align 8, !tbaa !12
  %11 = icmp eq i32 %10, 65280
  %12 = select i1 %11, i32 7, i32 8
  store i32 %12, ptr %3, align 4, !tbaa !13
  %13 = getelementptr inbounds nuw i8, ptr %0, i64 16
  %14 = load ptr, ptr %13, align 8, !tbaa !3
  %15 = getelementptr inbounds nuw i8, ptr %0, i64 8
  %16 = load ptr, ptr %15, align 8, !tbaa !11
  %.not.i = icmp ult ptr %14, %16
  br i1 %.not.i, label %17, label %opj_bio_byteout.exit

17:                                               ; preds = %6
  %18 = trunc i32 %8 to i8
  %19 = getelementptr inbounds nuw i8, ptr %14, i64 1
  store ptr %19, ptr %13, align 8, !tbaa !3
  store i8 %18, ptr %14, align 1, !tbaa !14
  %.pre = load i32, ptr %3, align 4, !tbaa !13
  br label %opj_bio_byteout.exit

opj_bio_byteout.exit:                             ; preds = %17, %6, %2
  %20 = phi i32 [ %.pre, %17 ], [ %12, %6 ], [ %4, %2 ]
  %21 = add i32 %20, -1
  store i32 %21, ptr %3, align 4, !tbaa !13
  %22 = shl i32 %1, %21
  %23 = getelementptr inbounds nuw i8, ptr %0, i64 24
  %24 = load i32, ptr %23, align 8, !tbaa !12
  %25 = or i32 %24, %22
  store i32 %25, ptr %23, align 8, !tbaa !12
  ret void
}